target datalayout = "e-m:e-p270:32:32-p271:32:32-p272:64:64-i64:64-i128:128-f80:128-n8:16:32:64-S128"
target triple = "x86_64-pc-linux-gnu"

; Function Attrs: nounwind uwtable
define hidden float @SDL_PQfromNits(float noundef %0) #0 {
  %2 = alloca float, align 4
  %3 = alloca float, align 4
  %4 = alloca float, align 4
  %5 = alloca float, align 4
  %6 = alloca float, align 4
  %7 = alloca float, align 4
  %8 = alloca float, align 4
  %9 = alloca float, align 4
  %10 = alloca float, align 4
  store float %0, ptr %2, align 4
  call void @llvm.lifetime.start.p0(i64 4, ptr %3) #7
  store float 0x3FEAC00000000000, ptr %3, align 4
  call void @llvm.lifetime.start.p0(i64 4, ptr %4) #7
  store float 0x4032DA0000000000, ptr %4, align 4
  call void @llvm.lifetime.start.p0(i64 4, ptr %5) #7
  store float 1.868750e+01, ptr %5, align 4
  call void @llvm.lifetime.start.p0(i64 4, ptr %6) #7
  store float 0x3FC4640000000000, ptr %6, align 4
  call void @llvm.lifetime.start.p0(i64 4, ptr %7) #7
  store float 0x4053B60000000000, ptr %7, align 4
  call void @llvm.lifetime.start.p0(i64 4, ptr %8) #7
  %11 = load float, ptr %2, align 4
  %12 = fdiv float %11, 1.000000e+04
  %13 = fcmp olt float %12, 0.000000e+00
  br i1 %13, label %14, label %15

14:                                               ; preds = %1
  br label %25

15:                                               ; preds = %1
  %16 = load float, ptr %2, align 4
  %17 = fdiv float %16, 1.000000e+04
  %18 = fcmp ogt float %17, 1.000000e+00
  br i1 %18, label %19, label %20

19:                                               ; preds = %15
  br label %23

20:                                               ; preds = %15
  %21 = load float, ptr %2, align 4
  %22 = fdiv float %21, 1.000000e+04
  br label %23

23:                                               ; preds = %20, %19
  %24 = phi float [ 1.000000e+00, %19 ], [ %22, %20 ]
  br label %25

25:                                               ; preds = %23, %14
  %26 = phi float [ 0.000000e+00, %14 ], [ %24, %23 ]
  store float %26, ptr %8, align 4
  call void @llvm.lifetime.start.p0(i64 4, ptr %9) #7
  %27 = load float, ptr %8, align 4
  %28 = call float @SDL_powf_REAL(float noundef %27, float noundef 0x3FC4640000000000)
  %29 = call float @llvm.fmuladd.f32(float 0x4032DA0000000000, float %28, float 0x3FEAC00000000000)
  store float %29, ptr %9, align 4
  call void @llvm.lifetime.start.p0(i64 4, ptr %10) #7
  %30 = load float, ptr %8, align 4
  %31 = call float @SDL_powf_REAL(float noundef %30, float noundef 0x3FC4640000000000)
  %32 = call float @llvm.fmuladd.f32(float 1.868750e+01, float %31, float 1.000000e+00)
  store float %32, ptr %10, align 4
  %33 = load float, ptr %9, align 4
  %34 = load float, ptr %10, align 4
  %35 = fdiv float %33, %34
  %36 = call float @SDL_powf_REAL(float noundef %35, float noundef 0x4053B60000000000)
  call void @llvm.lifetime.end.p0(i64 4, ptr %10) #7
  call void @llvm.lifetime.end.p0(i64 4, ptr %9) #7
  call void @llvm.lifetime.end.p0(i64 4, ptr %8) #7
  call void @llvm.lifetime.end.p0(i64 4, ptr %7) #7
  call void @llvm.lifetime.end.p0(i64 4, ptr %6) #7
  call void @llvm.lifetime.end.p0(i64 4, ptr %5) #7
  call void @llvm.lifetime.end.p0(i64 4, ptr %4) #7
  call void @llvm.lifetime.end.p0(i64 4, ptr %3) #7
  ret float %36
}