; Function Attrs: nounwind uwtable
define hidden float @SDL_PQfromNits(float noundef %0) local_unnamed_addr #1 {
  %2 = fdiv float %0, 1.000000e+04
  %3 = fcmp olt float %2, 0.000000e+00
  %4 = fcmp ogt float %2, 1.000000e+00
  %5 = select i1 %4, float 1.000000e+00, float %2
  %6 = select i1 %3, float 0.000000e+00, float %5
  %7 = tail call float @SDL_powf_REAL(float noundef %6, float noundef 0x3FC4640000000000) #15
  %8 = tail call float @llvm.fmuladd.f32(float %7, float 0x4032DA0000000000, float 0x3FEAC00000000000)
  %9 = tail call float @SDL_powf_REAL(float noundef %6, float noundef 0x3FC4640000000000) #15
  %10 = tail call float @llvm.fmuladd.f32(float %9, float 1.868750e+01, float 1.000000e+00)
  %11 = fdiv float %8, %10
  %12 = tail call float @SDL_powf_REAL(float noundef %11, float noundef 0x4053B60000000000) #15
  ret float %12
}